; Function Attrs: mustprogress nounwind uwtable
define internal fastcc void @_ZN4ncnnL22conv3x3s2_pack1to8_avxERKNS_3MatERS0_S2_S2_RKNS_6OptionE(ptr noundef nonnull align 8 dereferenceable(72) %0, ptr noundef nonnull align 8 dereferenceable(72) %1, ptr noundef nonnull align 8 dereferenceable(72) %2, ptr noundef nonnull readonly align 8 captures(none) dereferenceable(72) %3, ptr noundef nonnull readonly align 8 captures(none) dereferenceable(64) %4) unnamed_addr #16 {
  %6 = alloca i32, align 4
  %7 = alloca i32, align 4
  %8 = alloca i32, align 4
  %9 = alloca i32, align 4
  %10 = alloca i32, align 4
  %11 = alloca ptr, align 8
  %12 = alloca i32, align 4
  %13 = alloca i32, align 4
  %14 = tail call i32 @__kmpc_global_thread_num(ptr nonnull @2)
  %15 = getelementptr inbounds nuw i8, ptr %0, i64 44
  %16 = load i32, ptr %15, align 4, !tbaa !57
  call void @llvm.lifetime.start.p0(i64 4, ptr nonnull %6) #11
  %17 = getelementptr inbounds nuw i8, ptr %0, i64 56
  %18 = load i32, ptr %17, align 8, !tbaa !60
  store i32 %18, ptr %6, align 4, !tbaa !75
  call void @llvm.lifetime.start.p0(i64 4, ptr nonnull %7) #11
  %19 = getelementptr inbounds nuw i8, ptr %1, i64 44
  %20 = load i32, ptr %19, align 4, !tbaa !57
  store i32 %20, ptr %7, align 4, !tbaa !75
  call void @llvm.lifetime.start.p0(i64 4, ptr nonnull %8) #11
  %21 = getelementptr inbounds nuw i8, ptr %1, i64 48
  %22 = load i32, ptr %21, align 8, !tbaa !58
  store i32 %22, ptr %8, align 4, !tbaa !75
  call void @llvm.lifetime.start.p0(i64 4, ptr nonnull %9) #11
  %23 = getelementptr inbounds nuw i8, ptr %1, i64 56
  %24 = load i32, ptr %23, align 8, !tbaa !60
  store i32 %24, ptr %9, align 4, !tbaa !75
  call void @llvm.lifetime.start.p0(i64 4, ptr nonnull %10) #11
  %25 = sub i32 %16, %20
  %26 = shl i32 %25, 1
  store i32 %26, ptr %10, align 4, !tbaa !75
  call void @llvm.lifetime.start.p0(i64 8, ptr nonnull %11) #11
  %27 = load ptr, ptr %3, align 8, !tbaa !16
  store ptr %27, ptr %11, align 8, !tbaa !448
  call void @llvm.lifetime.start.p0(i64 4, ptr nonnull %12) #11
  %28 = ashr i32 %24, 1
  store i32 %28, ptr %12, align 4, !tbaa !75
  call void @llvm.lifetime.start.p0(i64 4, ptr nonnull %13) #11
  %29 = and i32 %24, -2
  store i32 %29, ptr %13, align 4, !tbaa !75
  %30 = getelementptr inbounds nuw i8, ptr %4, i64 4
  %31 = load i32, ptr %30, align 4, !tbaa !40
  tail call void @__kmpc_push_num_threads(ptr nonnull @2, i32 %14, i32 %31)
  call void (ptr, i32, ptr, ...) @__kmpc_fork_call(ptr nonnull @2, i32 9, ptr nonnull @_ZN4ncnnL22conv3x3s2_pack1to8_avxERKNS_3MatERS0_S2_S2_RKNS_6OptionE.omp_outlined, ptr nonnull %12, ptr nonnull %1, ptr nonnull %11, ptr nonnull %2, ptr nonnull %6, ptr nonnull %0, ptr nonnull %8, ptr nonnull %7, ptr nonnull %10)
  %32 = load i32, ptr %30, align 4, !tbaa !40
  call void @__kmpc_push_num_threads(ptr nonnull @2, i32 %14, i32 %32)
  call void (ptr, i32, ptr, ...) @__kmpc_fork_call(ptr nonnull @2, i32 10, ptr nonnull @_ZN4ncnnL22conv3x3s2_pack1to8_avxERKNS_3MatERS0_S2_S2_RKNS_6OptionE.omp_outlined.8, ptr nonnull %9, ptr nonnull %13, ptr nonnull %1, ptr nonnull %11, ptr nonnull %2, ptr nonnull %6, ptr nonnull %0, ptr nonnull %8, ptr nonnull %7, ptr nonnull %10)
  call void @llvm.lifetime.end.p0(i64 4, ptr nonnull %13) #11
  call void @llvm.lifetime.end.p0(i64 4, ptr nonnull %12) #11
  call void @llvm.lifetime.end.p0(i64 8, ptr nonnull %11) #11
  call void @llvm.lifetime.end.p0(i64 4, ptr nonnull %10) #11
  call void @llvm.lifetime.end.p0(i64 4, ptr nonnull %9) #11
  call void @llvm.lifetime.end.p0(i64 4, ptr nonnull %8) #11
  call void @llvm.lifetime.end.p0(i64 4, ptr nonnull %7) #11
  call void @llvm.lifetime.end.p0(i64 4, ptr nonnull %6) #11
  ret void
}